; Function Attrs: mustprogress uwtable
define hidden noundef zeroext i1 @_ZN6casadi9has_emptyERKSt6vectorINS_2MXESaIS1_EEb(ptr nocapture noundef nonnull readonly align 8 dereferenceable(24) %0, i1 noundef zeroext %1) local_unnamed_addr #3 {
  %3 = load ptr, ptr %0, align 8
  %4 = getelementptr inbounds i8, ptr %0, i64 8
  %5 = load ptr, ptr %4, align 8
  %.not = icmp eq ptr %3, %5
  br i1 %.not, label %._crit_edge, label %.lr.ph

.lr.ph:                                           ; preds = %2, %.lr.ph
  %.sroa.05.08 = phi ptr [ %9, %.lr.ph ], [ %3, %2 ]
  %6 = tail call noundef ptr @_ZNK6casadi12SharedObjectptEv(ptr noundef nonnull align 8 dereferenceable(8) %.sroa.05.08)
  %7 = getelementptr inbounds i8, ptr %6, i64 56
  %8 = tail call noundef zeroext i1 @_ZNK6casadi8Sparsity8is_emptyEb(ptr noundef nonnull align 8 dereferenceable(8) %7, i1 noundef zeroext %1)
  %9 = getelementptr inbounds i8, ptr %.sroa.05.08, i64 8
  %.not11 = icmp eq ptr %9, %5
  %or.cond = select i1 %8, i1 true, i1 %.not11
  br i1 %or.cond, label %._crit_edge, label %.lr.ph

._crit_edge:                                      ; preds = %.lr.ph, %2
  %.lcssa = phi i1 [ false, %2 ], [ %8, %.lr.ph ]
  ret i1 %.lcssa
}